libKF5Auth.so.5:_ZN5KAuth15ObjectDecorator10authorizedERKNS_6ActionE
libKF5Auth.so.5:_ZN5KAuth15ObjectDecorator11qt_metacallEN11QMetaObject4CallEiPPv
libKF5Auth.so.5:_ZN5KAuth15ObjectDecorator11qt_metacastEPKc
libKF5Auth.so.5:_ZN5KAuth15ObjectDecorator13setAuthActionERK7QString
libKF5Auth.so.5:_ZN5KAuth15ObjectDecorator13setAuthActionERKNS_6ActionE
libKF5Auth.so.5:_ZN5KAuth15ObjectDecoratorC1EP7QObject
libKF5Auth.so.5:_ZN5KAuth15ObjectDecoratorC2EP7QObject
libKF5Auth.so.5:_ZN5KAuth15ObjectDecoratorD0Ev
libKF5Auth.so.5:_ZN5KAuth15ObjectDecoratorD1Ev
libKF5Auth.so.5:_ZN5KAuth15ObjectDecoratorD2Ev
libKF5Auth.so.5:_ZNK5KAuth15ObjectDecorator10authActionEv
libKF5Auth.so.5:_ZNK5KAuth15ObjectDecorator10metaObjectEv
libKF5AuthCore.so.5:_ZGTtNKSt13bad_exception4whatEv
libKF5AuthCore.so.5:_ZGTtNKSt13bad_exceptionD1Ev
libKF5AuthCore.so.5:_ZGTtNKSt9exception4whatEv
libKF5AuthCore.so.5:_ZGTtNKSt9exceptionD1Ev
libKF5AuthCore.so.5:_ZN10__cxxabiv111__terminateEPFvvE
libKF5AuthCore.so.5:_ZN10__cxxabiv112__unexpectedEPFvvE
libKF5AuthCore.so.5:_ZN10__cxxabiv115__forced_unwindD0Ev
libKF5AuthCore.so.5:_ZN10__cxxabiv115__forced_unwindD1Ev
libKF5AuthCore.so.5:_ZN10__cxxabiv115__forced_unwindD2Ev
libKF5AuthCore.so.5:_ZN10__cxxabiv117__class_type_infoD0Ev
libKF5AuthCore.so.5:_ZN10__cxxabiv117__class_type_infoD1Ev
libKF5AuthCore.so.5:_ZN10__cxxabiv117__class_type_infoD2Ev
libKF5AuthCore.so.5:_ZN10__cxxabiv119__foreign_exceptionD0Ev
libKF5AuthCore.so.5:_ZN10__cxxabiv119__foreign_exceptionD1Ev
libKF5AuthCore.so.5:_ZN10__cxxabiv119__foreign_exceptionD2Ev
libKF5AuthCore.so.5:_ZN10__cxxabiv120__si_class_type_infoD0Ev
libKF5AuthCore.so.5:_ZN10__cxxabiv120__si_class_type_infoD1Ev
libKF5AuthCore.so.5:_ZN10__cxxabiv120__si_class_type_infoD2Ev
libKF5AuthCore.so.5:_ZN5KAuth10ExecuteJob11qt_metacallEN11QMetaObject4CallEiPPv
libKF5AuthCore.so.5:_ZN5KAuth10ExecuteJob11qt_metacastEPKc
libKF5AuthCore.so.5:_ZN5KAuth10ExecuteJob13statusChangedENS_6Action10AuthStatusE
libKF5AuthCore.so.5:_ZN5KAuth10ExecuteJob4killEN4KJob13KillVerbosityE
libKF5AuthCore.so.5:_ZN5KAuth10ExecuteJob5startEv
libKF5AuthCore.so.5:_ZN5KAuth10ExecuteJob7newDataERK4QMapI7QString8QVariantE
libKF5AuthCore.so.5:_ZN5KAuth10ExecuteJobC1ERKNS_6ActionENS1_13ExecutionModeEP7QObject
libKF5AuthCore.so.5:_ZN5KAuth10ExecuteJobC2ERKNS_6ActionENS1_13ExecutionModeEP7QObject
libKF5AuthCore.so.5:_ZN5KAuth10ExecuteJobD0Ev
libKF5AuthCore.so.5:_ZN5KAuth10ExecuteJobD1Ev
libKF5AuthCore.so.5:_ZN5KAuth10ExecuteJobD2Ev
libKF5AuthCore.so.5:_ZN5KAuth11ActionReply11deserializeERK10QByteArray
libKF5AuthCore.so.5:_ZN5KAuth11ActionReply12SuccessReplyEv
libKF5AuthCore.so.5:_ZN5KAuth11ActionReply12setErrorCodeENS0_5ErrorE
libKF5AuthCore.so.5:_ZN5KAuth11ActionReply14DBusErrorReplyEv
libKF5AuthCore.so.5:_ZN5KAuth11ActionReply15HelperBusyReplyEv
libKF5AuthCore.so.5:_ZN5KAuth11ActionReply16HelperErrorReplyEi
libKF5AuthCore.so.5:_ZN5KAuth11ActionReply16HelperErrorReplyEv
libKF5AuthCore.so.5:_ZN5KAuth11ActionReply16NoResponderReplyEv
libKF5AuthCore.so.5:_ZN5KAuth11ActionReply17NoSuchActionReplyEv
libKF5AuthCore.so.5:_ZN5KAuth11ActionReply18InvalidActionReplyEv
libKF5AuthCore.so.5:_ZN5KAuth11ActionReply18UserCancelledReplyEv
libKF5AuthCore.so.5:_ZN5KAuth11ActionReply19AlreadyStartedReplyEv
libKF5AuthCore.so.5:_ZN5KAuth11ActionReply19setErrorDescriptionERK7QString
libKF5AuthCore.so.5:_ZN5KAuth11ActionReply24AuthorizationDeniedReplyEv
libKF5AuthCore.so.5:_ZN5KAuth11ActionReply7addDataERK7QStringRK8QVariant
libKF5AuthCore.so.5:_ZN5KAuth11ActionReply7setDataERK4QMapI7QString8QVariantE
libKF5AuthCore.so.5:_ZN5KAuth11ActionReply7setTypeENS0_4TypeE
libKF5AuthCore.so.5:_ZN5KAuth11ActionReply8setErrorEi
libKF5AuthCore.so.5:_ZN5KAuth11ActionReplyC1ENS0_4TypeE
libKF5AuthCore.so.5:_ZN5KAuth11ActionReplyC1ERKS0_
libKF5AuthCore.so.5:_ZN5KAuth11ActionReplyC1Ei
libKF5AuthCore.so.5:_ZN5KAuth11ActionReplyC1Ev
libKF5AuthCore.so.5:_ZN5KAuth11ActionReplyC2ENS0_4TypeE
libKF5AuthCore.so.5:_ZN5KAuth11ActionReplyC2ERKS0_
libKF5AuthCore.so.5:_ZN5KAuth11ActionReplyC2Ei
libKF5AuthCore.so.5:_ZN5KAuth11ActionReplyC2Ev
libKF5AuthCore.so.5:_ZN5KAuth11ActionReplyD0Ev
libKF5AuthCore.so.5:_ZN5KAuth11ActionReplyD1Ev
libKF5AuthCore.so.5:_ZN5KAuth11ActionReplyD2Ev
libKF5AuthCore.so.5:_ZN5KAuth11ActionReplyaSERKS0_
libKF5AuthCore.so.5:_ZN5KAuth13HelperSupport10helperMainEiPPcPKcP7QObject
libKF5AuthCore.so.5:_ZN5KAuth13HelperSupport12progressStepERK4QMapI7QString8QVariantE
libKF5AuthCore.so.5:_ZN5KAuth13HelperSupport12progressStepEi
libKF5AuthCore.so.5:_ZN5KAuth13HelperSupport9callerUidEv
libKF5AuthCore.so.5:_ZN5KAuth13HelperSupport9isStoppedEv
libKF5AuthCore.so.5:_ZN5KAuth15BackendsManager11authBackendEv
libKF5AuthCore.so.5:_ZN5KAuth15BackendsManager11helperProxyEv
libKF5AuthCore.so.5:_ZN5KAuth15BackendsManager19retrieveInstancesInERK7QString
libKF5AuthCore.so.5:_ZN5KAuth15BackendsManager4initEv
libKF5AuthCore.so.5:_ZN5KAuth15BackendsManagerC1Ev
libKF5AuthCore.so.5:_ZN5KAuth15BackendsManagerC2Ev
libKF5AuthCore.so.5:_ZN5KAuth6Action10setDetailsERK7QString
libKF5AuthCore.so.5:_ZN5KAuth6Action10setTimeoutEi
libKF5AuthCore.so.5:_ZN5KAuth6Action11addArgumentERK7QStringRK8QVariant
libKF5AuthCore.so.5:_ZN5KAuth6Action11setHelperIdERK7QString
libKF5AuthCore.so.5:_ZN5KAuth6Action12setArgumentsERK4QMapI7QString8QVariantE
libKF5AuthCore.so.5:_ZN5KAuth6Action12setDetailsV2ERK4QMapINS0_10AuthDetailE8QVariantE
libKF5AuthCore.so.5:_ZN5KAuth6Action15setParentWidgetEP7QWidget
libKF5AuthCore.so.5:_ZN5KAuth6Action7executeENS0_13ExecutionModeE
libKF5AuthCore.so.5:_ZN5KAuth6Action7setNameERK7QString
libKF5AuthCore.so.5:_ZN5KAuth6ActionC1ERK7QString
libKF5AuthCore.so.5:_ZN5KAuth6ActionC1ERK7QStringRK4QMapINS0_10AuthDetailE8QVariantE
libKF5AuthCore.so.5:_ZN5KAuth6ActionC1ERK7QStringS3_
libKF5AuthCore.so.5:_ZN5KAuth6ActionC1ERKS0_
libKF5AuthCore.so.5:_ZN5KAuth6ActionC1Ev
libKF5AuthCore.so.5:_ZN5KAuth6ActionC2ERK7QString
libKF5AuthCore.so.5:_ZN5KAuth6ActionC2ERK7QStringRK4QMapINS0_10AuthDetailE8QVariantE
libKF5AuthCore.so.5:_ZN5KAuth6ActionC2ERK7QStringS3_
libKF5AuthCore.so.5:_ZN5KAuth6ActionC2ERKS0_
libKF5AuthCore.so.5:_ZN5KAuth6ActionC2Ev
libKF5AuthCore.so.5:_ZN5KAuth6ActionD1Ev
libKF5AuthCore.so.5:_ZN5KAuth6ActionD2Ev
libKF5AuthCore.so.5:_ZN5KAuth6ActionaSERKS0_
libKF5AuthCore.so.5:_ZN9__gnu_cxx20recursive_init_errorC1Ev
libKF5AuthCore.so.5:_ZN9__gnu_cxx20recursive_init_errorC2Ev
libKF5AuthCore.so.5:_ZN9__gnu_cxx20recursive_init_errorD0Ev
libKF5AuthCore.so.5:_ZN9__gnu_cxx20recursive_init_errorD1Ev
libKF5AuthCore.so.5:_ZN9__gnu_cxx20recursive_init_errorD2Ev
libKF5AuthCore.so.5:_ZN9__gnu_cxx27__verbose_terminate_handlerEv
libKF5AuthCore.so.5:_ZN9__gnu_cxx9__freeresEv
libKF5AuthCore.so.5:_ZNK10__cxxabiv117__class_type_info10__do_catchEPKSt9type_infoPPvj
libKF5AuthCore.so.5:_ZNK10__cxxabiv117__class_type_info11__do_upcastEPKS0_PKvRNS0_15__upcast_resultE
libKF5AuthCore.so.5:_ZNK10__cxxabiv117__class_type_info11__do_upcastEPKS0_PPv
libKF5AuthCore.so.5:_ZNK10__cxxabiv117__class_type_info12__do_dyncastElNS0_10__sub_kindEPKS0_PKvS3_S5_RNS0_16__dyncast_resultE
libKF5AuthCore.so.5:_ZNK10__cxxabiv117__class_type_info20__do_find_public_srcElPKvPKS0_S2_
libKF5AuthCore.so.5:_ZNK10__cxxabiv120__si_class_type_info11__do_upcastEPKNS_17__class_type_infoEPKvRNS1_15__upcast_resultE
libKF5AuthCore.so.5:_ZNK10__cxxabiv120__si_class_type_info12__do_dyncastElNS_17__class_type_info10__sub_kindEPKS1_PKvS4_S6_RNS1_16__dyncast_resultE
libKF5AuthCore.so.5:_ZNK10__cxxabiv120__si_class_type_info20__do_find_public_srcElPKvPKNS_17__class_type_infoES2_
libKF5AuthCore.so.5:_ZNK5KAuth10ExecuteJob10metaObjectEv
libKF5AuthCore.so.5:_ZNK5KAuth10ExecuteJob4dataEv
libKF5AuthCore.so.5:_ZNK5KAuth10ExecuteJob6actionEv
libKF5AuthCore.so.5:_ZNK5KAuth11ActionReply10serializedEv
libKF5AuthCore.so.5:_ZNK5KAuth11ActionReply16errorDescriptionEv
libKF5AuthCore.so.5:_ZNK5KAuth11ActionReply4dataEv
libKF5AuthCore.so.5:_ZNK5KAuth11ActionReply4typeEv
libKF5AuthCore.so.5:_ZNK5KAuth11ActionReply5errorEv
libKF5AuthCore.so.5:_ZNK5KAuth11ActionReply6failedEv
libKF5AuthCore.so.5:_ZNK5KAuth11ActionReply9errorCodeEv
libKF5AuthCore.so.5:_ZNK5KAuth11ActionReply9succeededEv
libKF5AuthCore.so.5:_ZNK5KAuth11ActionReplyeqERKS0_
libKF5AuthCore.so.5:_ZNK5KAuth11ActionReplyneERKS0_
libKF5AuthCore.so.5:_ZNK5KAuth6Action12parentWidgetEv
libKF5AuthCore.so.5:_ZNK5KAuth6Action4nameEv
libKF5AuthCore.so.5:_ZNK5KAuth6Action6statusEv
libKF5AuthCore.so.5:_ZNK5KAuth6Action7detailsEv
libKF5AuthCore.so.5:_ZNK5KAuth6Action7isValidEv
libKF5AuthCore.so.5:_ZNK5KAuth6Action7timeoutEv
libKF5AuthCore.so.5:_ZNK5KAuth6Action8helperIdEv
libKF5AuthCore.so.5:_ZNK5KAuth6Action9argumentsEv
libKF5AuthCore.so.5:_ZNK5KAuth6Action9detailsV2Ev
libKF5AuthCore.so.5:_ZNK5KAuth6Action9hasHelperEv
libKF5AuthCore.so.5:_ZNK5KAuth6ActioneqERKS0_
libKF5AuthCore.so.5:_ZNK5KAuth6ActionneERKS0_
libKF5AuthCore.so.5:_ZNKSt13bad_exception4whatEv
libKF5AuthCore.so.5:_ZNKSt9bad_alloc4whatEv
libKF5AuthCore.so.5:_ZNKSt9exception4whatEv
libKF5AuthCore.so.5:_ZNKSt9type_info10__do_catchEPKS_PPvj
libKF5AuthCore.so.5:_ZNKSt9type_info11__do_upcastEPKN10__cxxabiv117__class_type_infoEPPv
libKF5AuthCore.so.5:_ZNKSt9type_info14__is_pointer_pEv
libKF5AuthCore.so.5:_ZNKSt9type_info15__is_function_pEv
libKF5AuthCore.so.5:_ZNSt13bad_exceptionD0Ev
libKF5AuthCore.so.5:_ZNSt13bad_exceptionD1Ev
libKF5AuthCore.so.5:_ZNSt13bad_exceptionD2Ev
libKF5AuthCore.so.5:_ZNSt9bad_allocD0Ev
libKF5AuthCore.so.5:_ZNSt9bad_allocD1Ev
libKF5AuthCore.so.5:_ZNSt9bad_allocD2Ev
libKF5AuthCore.so.5:_ZNSt9exceptionD0Ev
libKF5AuthCore.so.5:_ZNSt9exceptionD1Ev
libKF5AuthCore.so.5:_ZNSt9exceptionD2Ev
libKF5AuthCore.so.5:_ZNSt9type_infoD0Ev
libKF5AuthCore.so.5:_ZNSt9type_infoD1Ev
libKF5AuthCore.so.5:_ZNSt9type_infoD2Ev
libKF5AuthCore.so.5:_ZSt10unexpectedv
libKF5AuthCore.so.5:_ZSt13get_terminatev
libKF5AuthCore.so.5:_ZSt13set_terminatePFvvE
libKF5AuthCore.so.5:_ZSt14get_unexpectedv
libKF5AuthCore.so.5:_ZSt14set_unexpectedPFvvE
libKF5AuthCore.so.5:_ZSt15get_new_handlerv
libKF5AuthCore.so.5:_ZSt15set_new_handlerPFvvE
libKF5AuthCore.so.5:_ZSt18uncaught_exceptionv
libKF5AuthCore.so.5:_ZSt19uncaught_exceptionsv
libKF5AuthCore.so.5:_ZSt9terminatev
libKF5AuthCore.so.5:_ZdlPv
libKF5AuthCore.so.5:_ZdlPvm
libKF5AuthCore.so.5:_Znwm
libKF5AuthCore.so.5:__cxa_allocate_dependent_exception
libKF5AuthCore.so.5:__cxa_allocate_exception
libKF5AuthCore.so.5:__cxa_begin_catch
libKF5AuthCore.so.5:__cxa_call_terminate
libKF5AuthCore.so.5:__cxa_call_unexpected
libKF5AuthCore.so.5:__cxa_current_exception_type
libKF5AuthCore.so.5:__cxa_demangle
libKF5AuthCore.so.5:__cxa_end_catch
libKF5AuthCore.so.5:__cxa_free_dependent_exception
libKF5AuthCore.so.5:__cxa_free_exception
libKF5AuthCore.so.5:__cxa_get_exception_ptr
libKF5AuthCore.so.5:__cxa_get_globals
libKF5AuthCore.so.5:__cxa_get_globals_fast
libKF5AuthCore.so.5:__cxa_guard_abort
libKF5AuthCore.so.5:__cxa_guard_acquire
libKF5AuthCore.so.5:__cxa_guard_release
libKF5AuthCore.so.5:__cxa_init_primary_exception
libKF5AuthCore.so.5:__cxa_rethrow
libKF5AuthCore.so.5:__cxa_throw
libKF5AuthCore.so.5:__gcclibcxx_demangle_callback
libKF5AuthCore.so.5:__gxx_personality_v0
